target datalayout = "e-m:e-p270:32:32-p271:32:32-p272:64:64-i64:64-i128:128-f80:128-n8:16:32:64-S128"
target triple = "x86_64-pc-linux-gnu"

%"class.llvm::DbgMarker" = type { ptr, %"class.llvm::simple_ilist.43" }
%"class.llvm::simple_ilist.43" = type { %"class.llvm::ilist_sentinel.45" }
%"class.llvm::ilist_sentinel.45" = type { %"class.llvm::ilist_node_impl" }
%"class.llvm::ilist_node_impl" = type { %"class.llvm::ilist_node_base" }
%"class.llvm::ilist_node_base" = type { %"class.llvm::ilist_detail::node_base_prevnext" }
%"class.llvm::ilist_detail::node_base_prevnext" = type { ptr, ptr }
%"class.llvm::TypedTrackingMDRef" = type { %"class.llvm::TrackingMDRef" }
%"class.llvm::TrackingMDRef" = type { ptr }
%"class.llvm::DebugLoc" = type { %"class.llvm::TypedTrackingMDRef" }
%"class.llvm::ilist_node" = type { %"class.llvm::ilist_node_impl" }
%"class.llvm::DbgRecord" = type <{ %"class.llvm::ilist_node", ptr, %"class.llvm::DebugLoc", i8, [7 x i8] }>
%"class.llvm::ilist_iterator" = type { ptr }

; Function Attrs: mustprogress nounwind uwtable
define linkonce_odr hidden void @_ZN4llvm12ilist_detail18node_base_prevnextINS_15ilist_node_baseILb0EvEELb0EE7setPrevEPS3_(ptr noundef nonnull align 8 dereferenceable(16) %0, ptr noundef %1) #0 comdat align 2 {
  %3 = alloca ptr, align 8
  %4 = alloca ptr, align 8
  store ptr %0, ptr %3, align 8
  store ptr %1, ptr %4, align 8
  %5 = load ptr, ptr %3, align 8
  %6 = load ptr, ptr %4, align 8
  %7 = getelementptr inbounds nuw %"class.llvm::ilist_detail::node_base_prevnext", ptr %5, i32 0, i32 0
  store ptr %6, ptr %7, align 8
  ret void
}

; Function Attrs: mustprogress nounwind uwtable
define linkonce_odr hidden void @_ZN4llvm12ilist_detail18node_base_prevnextINS_15ilist_node_baseILb0EvEELb0EE7setNextEPS3_(ptr noundef nonnull align 8 dereferenceable(16) %0, ptr noundef %1) #0 comdat align 2 {
  %3 = alloca ptr, align 8
  %4 = alloca ptr, align 8
  store ptr %0, ptr %3, align 8
  store ptr %1, ptr %4, align 8
  %5 = load ptr, ptr %3, align 8
  %6 = load ptr, ptr %4, align 8
  %7 = getelementptr inbounds nuw %"class.llvm::ilist_detail::node_base_prevnext", ptr %5, i32 0, i32 1
  store ptr %6, ptr %7, align 8
  ret void
}

; Function Attrs: mustprogress nounwind uwtable
define linkonce_odr hidden noundef ptr @_ZNK4llvm12ilist_detail18node_base_prevnextINS_15ilist_node_baseILb0EvEELb0EE7getPrevEv(ptr noundef nonnull align 8 dereferenceable(16) %0) #0 comdat align 2 {
  %2 = alloca ptr, align 8
  store ptr %0, ptr %2, align 8
  %3 = load ptr, ptr %2, align 8
  %4 = getelementptr inbounds nuw %"class.llvm::ilist_detail::node_base_prevnext", ptr %3, i32 0, i32 0
  %5 = load ptr, ptr %4, align 8
  ret ptr %5
}

; Function Attrs: mustprogress nounwind uwtable
define linkonce_odr hidden void @_ZN4llvm10ilist_baseILb0EvE16insertBeforeImplERNS_15ilist_node_baseILb0EvEES4_(ptr noundef nonnull align 8 dereferenceable(16) %0, ptr noundef nonnull align 8 dereferenceable(16) %1) #0 comdat align 2 {
  %3 = alloca ptr, align 8
  %4 = alloca ptr, align 8
  %5 = alloca ptr, align 8
  store ptr %0, ptr %3, align 8
  store ptr %1, ptr %4, align 8
  %6 = load ptr, ptr %3, align 8
  %7 = call noundef ptr @_ZNK4llvm12ilist_detail18node_base_prevnextINS_15ilist_node_baseILb0EvEELb0EE7getPrevEv(ptr noundef nonnull align 8 dereferenceable(16) %6)
  store ptr %7, ptr %5, align 8
  %8 = load ptr, ptr %4, align 8
  %9 = load ptr, ptr %3, align 8
  call void @_ZN4llvm12ilist_detail18node_base_prevnextINS_15ilist_node_baseILb0EvEELb0EE7setNextEPS3_(ptr noundef nonnull align 8 dereferenceable(16) %8, ptr noundef %9)
  %10 = load ptr, ptr %4, align 8
  %11 = load ptr, ptr %5, align 8
  call void @_ZN4llvm12ilist_detail18node_base_prevnextINS_15ilist_node_baseILb0EvEELb0EE7setPrevEPS3_(ptr noundef nonnull align 8 dereferenceable(16) %10, ptr noundef %11)
  %12 = load ptr, ptr %5, align 8
  %13 = load ptr, ptr %4, align 8
  call void @_ZN4llvm12ilist_detail18node_base_prevnextINS_15ilist_node_baseILb0EvEELb0EE7setNextEPS3_(ptr noundef nonnull align 8 dereferenceable(16) %12, ptr noundef %13)
  %14 = load ptr, ptr %3, align 8
  %15 = load ptr, ptr %4, align 8
  call void @_ZN4llvm12ilist_detail18node_base_prevnextINS_15ilist_node_baseILb0EvEELb0EE7setPrevEPS3_(ptr noundef nonnull align 8 dereferenceable(16) %14, ptr noundef %15)
  ret void
}

; Function Attrs: mustprogress nounwind uwtable
define linkonce_odr hidden noundef ptr @_ZN4llvm12ilist_detail10NodeAccess10getNodePtrINS0_12node_optionsINS_9DbgRecordELb0ELb0EvLb0EvEEEEPNS_15ilist_node_implIT_EENS7_7pointerE(ptr noundef %0) #0 comdat align 2 {
  %2 = alloca ptr, align 8
  store ptr %0, ptr %2, align 8
  %3 = load ptr, ptr %2, align 8
  ret ptr %3
}

; Function Attrs: mustprogress nounwind uwtable
define linkonce_odr hidden void @_ZN4llvm14ilist_iteratorINS_12ilist_detail12node_optionsINS_9DbgRecordELb0ELb0EvLb0EvEELb0ELb0EEC2EPS3_(ptr noundef nonnull align 8 dereferenceable(8) %0, ptr noundef %1) unnamed_addr #0 comdat align 2 {
  %3 = alloca ptr, align 8
  %4 = alloca ptr, align 8
  store ptr %0, ptr %3, align 8
  store ptr %1, ptr %4, align 8
  %5 = load ptr, ptr %3, align 8
  %6 = getelementptr inbounds nuw %"class.llvm::ilist_iterator", ptr %5, i32 0, i32 0
  %7 = load ptr, ptr %4, align 8
  %8 = call noundef ptr @_ZN4llvm12ilist_detail18SpecificNodeAccessINS0_12node_optionsINS_9DbgRecordELb0ELb0EvLb0EvEEE10getNodePtrEPS3_(ptr noundef %7)
  store ptr %8, ptr %6, align 8
  ret void
}

; Function Attrs: mustprogress nounwind uwtable
define linkonce_odr hidden void @_ZN4llvm10ilist_baseILb0EvE12insertBeforeINS_15ilist_node_implINS_12ilist_detail12node_optionsINS_9DbgRecordELb0ELb0EvLb0EvEEEEEEvRT_SA_(ptr noundef nonnull align 8 dereferenceable(16) %0, ptr noundef nonnull align 8 dereferenceable(16) %1) #0 comdat align 2 {
  %3 = alloca ptr, align 8
  %4 = alloca ptr, align 8
  store ptr %0, ptr %3, align 8
  store ptr %1, ptr %4, align 8
  %5 = load ptr, ptr %3, align 8
  %6 = load ptr, ptr %4, align 8
  call void @_ZN4llvm10ilist_baseILb0EvE16insertBeforeImplERNS_15ilist_node_baseILb0EvEES4_(ptr noundef nonnull align 8 dereferenceable(16) %5, ptr noundef nonnull align 8 dereferenceable(16) %6)
  ret void
}

; Function Attrs: mustprogress nounwind uwtable
define linkonce_odr hidden noundef ptr @_ZN4llvm12ilist_detail18SpecificNodeAccessINS0_12node_optionsINS_9DbgRecordELb0ELb0EvLb0EvEEE10getNodePtrEPS3_(ptr noundef %0) #0 comdat align 2 {
  %2 = alloca ptr, align 8
  store ptr %0, ptr %2, align 8
  %3 = load ptr, ptr %2, align 8
  %4 = call noundef ptr @_ZN4llvm12ilist_detail10NodeAccess10getNodePtrINS0_12node_optionsINS_9DbgRecordELb0ELb0EvLb0EvEEEEPNS_15ilist_node_implIT_EENS7_7pointerE(ptr noundef %3)
  ret ptr %4
}

; Function Attrs: mustprogress nounwind uwtable
define linkonce_odr hidden noundef ptr @_ZNK4llvm14ilist_iteratorINS_12ilist_detail12node_optionsINS_9DbgRecordELb0ELb0EvLb0EvEELb0ELb0EE10getNodePtrEv(ptr noundef nonnull align 8 dereferenceable(8) %0) #0 comdat align 2 {
  %2 = alloca ptr, align 8
  store ptr %0, ptr %2, align 8
  %3 = load ptr, ptr %2, align 8
  %4 = getelementptr inbounds nuw %"class.llvm::ilist_iterator", ptr %3, i32 0, i32 0
  %5 = load ptr, ptr %4, align 8
  ret ptr %5
}

; Function Attrs: mustprogress nounwind uwtable
define linkonce_odr hidden void @_ZN4llvm14ilist_iteratorINS_12ilist_detail12node_optionsINS_9DbgRecordELb0ELb0EvLb0EvEELb0ELb0EEC2ERNS_15ilist_node_implIS4_EE(ptr noundef nonnull align 8 dereferenceable(8) %0, ptr noundef nonnull align 8 dereferenceable(16) %1) unnamed_addr #0 comdat align 2 {
  %3 = alloca ptr, align 8
  %4 = alloca ptr, align 8
  store ptr %0, ptr %3, align 8
  store ptr %1, ptr %4, align 8
  %5 = load ptr, ptr %3, align 8
  %6 = getelementptr inbounds nuw %"class.llvm::ilist_iterator", ptr %5, i32 0, i32 0
  %7 = load ptr, ptr %4, align 8
  store ptr %7, ptr %6, align 8
  ret void
}

; Function Attrs: mustprogress nounwind uwtable
define linkonce_odr hidden void @_ZN4llvm9DbgRecord9setMarkerEPNS_9DbgMarkerE(ptr noundef nonnull align 8 dereferenceable(33) %0, ptr noundef %1) #0 comdat align 2 {
  %3 = alloca ptr, align 8
  %4 = alloca ptr, align 8
  store ptr %0, ptr %3, align 8
  store ptr %1, ptr %4, align 8
  %5 = load ptr, ptr %3, align 8
  %6 = load ptr, ptr %4, align 8
  %7 = getelementptr inbounds nuw %"class.llvm::DbgRecord", ptr %5, i32 0, i32 1
  store ptr %6, ptr %7, align 8
  ret void
}

; Function Attrs: mustprogress nounwind uwtable
define linkonce_odr hidden ptr @_ZN4llvm12simple_ilistINS_9DbgRecordEJEE6insertENS_14ilist_iteratorINS_12ilist_detail12node_optionsIS1_Lb0ELb0EvLb0EvEELb0ELb0EEERS1_(ptr noundef nonnull align 8 dereferenceable(16) %0, ptr %1, ptr noundef nonnull align 8 dereferenceable(33) %2) #0 comdat align 2 {
  %4 = alloca %"class.llvm::ilist_iterator", align 8
  %5 = alloca %"class.llvm::ilist_iterator", align 8
  %6 = alloca ptr, align 8
  %7 = alloca ptr, align 8
  %8 = getelementptr inbounds nuw %"class.llvm::ilist_iterator", ptr %5, i32 0, i32 0
  store ptr %1, ptr %8, align 8
  store ptr %0, ptr %6, align 8
  store ptr %2, ptr %7, align 8
  %9 = call noundef ptr @_ZNK4llvm14ilist_iteratorINS_12ilist_detail12node_optionsINS_9DbgRecordELb0ELb0EvLb0EvEELb0ELb0EE10getNodePtrEv(ptr noundef nonnull align 8 dereferenceable(8) %5)
  %10 = load ptr, ptr %7, align 8
  %11 = call noundef ptr @_ZN4llvm12ilist_detail18SpecificNodeAccessINS0_12node_optionsINS_9DbgRecordELb0ELb0EvLb0EvEEE10getNodePtrEPS3_(ptr noundef %10)
  call void @_ZN4llvm10ilist_baseILb0EvE12insertBeforeINS_15ilist_node_implINS_12ilist_detail12node_optionsINS_9DbgRecordELb0ELb0EvLb0EvEEEEEEvRT_SA_(ptr noundef nonnull align 8 dereferenceable(16) %9, ptr noundef nonnull align 8 dereferenceable(16) %11)
  %12 = load ptr, ptr %7, align 8
  call void @_ZN4llvm14ilist_iteratorINS_12ilist_detail12node_optionsINS_9DbgRecordELb0ELb0EvLb0EvEELb0ELb0EEC2EPS3_(ptr noundef nonnull align 8 dereferenceable(8) %4, ptr noundef %12)
  %13 = getelementptr inbounds nuw %"class.llvm::ilist_iterator", ptr %4, i32 0, i32 0
  %14 = load ptr, ptr %13, align 8
  ret ptr %14
}

; Function Attrs: mustprogress nounwind uwtable
define linkonce_odr hidden ptr @_ZN4llvm15ilist_node_implINS_12ilist_detail12node_optionsINS_9DbgRecordELb0ELb0EvLb0EvEEE11getIteratorEv(ptr noundef nonnull align 8 dereferenceable(16) %0) #0 comdat align 2 {
  %2 = alloca %"class.llvm::ilist_iterator", align 8
  %3 = alloca ptr, align 8
  store ptr %0, ptr %3, align 8
  %4 = load ptr, ptr %3, align 8
  call void @_ZN4llvm14ilist_iteratorINS_12ilist_detail12node_optionsINS_9DbgRecordELb0ELb0EvLb0EvEELb0ELb0EEC2ERNS_15ilist_node_implIS4_EE(ptr noundef nonnull align 8 dereferenceable(8) %2, ptr noundef nonnull align 8 dereferenceable(16) %4)
  %5 = getelementptr inbounds nuw %"class.llvm::ilist_iterator", ptr %2, i32 0, i32 0
  %6 = load ptr, ptr %5, align 8
  ret ptr %6
}

; Function Attrs: mustprogress nounwind uwtable
define dso_local void @_ZN4llvm9DbgMarker15insertDbgRecordEPNS_9DbgRecordES2_(ptr noundef nonnull align 8 dereferenceable(24) %0, ptr noundef %1, ptr noundef %2) #0 align 2 {
  %4 = alloca ptr, align 8
  %5 = alloca ptr, align 8
  %6 = alloca ptr, align 8
  %7 = alloca %"class.llvm::ilist_iterator", align 8
  %8 = alloca %"class.llvm::ilist_iterator", align 8
  store ptr %0, ptr %4, align 8
  store ptr %1, ptr %5, align 8
  store ptr %2, ptr %6, align 8
  %9 = load ptr, ptr %4, align 8
  %10 = getelementptr inbounds nuw %"class.llvm::DbgMarker", ptr %9, i32 0, i32 1
  %11 = load ptr, ptr %6, align 8
  %12 = call ptr @_ZN4llvm15ilist_node_implINS_12ilist_detail12node_optionsINS_9DbgRecordELb0ELb0EvLb0EvEEE11getIteratorEv(ptr noundef nonnull align 8 dereferenceable(16) %11)
  %13 = getelementptr inbounds nuw %"class.llvm::ilist_iterator", ptr %7, i32 0, i32 0
  store ptr %12, ptr %13, align 8
  %14 = load ptr, ptr %5, align 8
  %15 = getelementptr inbounds nuw %"class.llvm::ilist_iterator", ptr %7, i32 0, i32 0
  %16 = load ptr, ptr %15, align 8
  %17 = call ptr @_ZN4llvm12simple_ilistINS_9DbgRecordEJEE6insertENS_14ilist_iteratorINS_12ilist_detail12node_optionsIS1_Lb0ELb0EvLb0EvEELb0ELb0EEERS1_(ptr noundef nonnull align 8 dereferenceable(16) %10, ptr %16, ptr noundef nonnull align 8 dereferenceable(33) %14)
  %18 = getelementptr inbounds nuw %"class.llvm::ilist_iterator", ptr %8, i32 0, i32 0
  store ptr %17, ptr %18, align 8
  %19 = load ptr, ptr %5, align 8
  call void @_ZN4llvm9DbgRecord9setMarkerEPNS_9DbgMarkerE(ptr noundef nonnull align 8 dereferenceable(33) %19, ptr noundef %9)
  ret void
}

; Function Attrs: mustprogress nounwind uwtable
define linkonce_odr hidden noundef ptr @_ZN4llvm9DbgRecord9getMarkerEv(ptr noundef nonnull align 8 dereferenceable(33) %0) #0 comdat align 2 {
  %2 = alloca ptr, align 8
  store ptr %0, ptr %2, align 8
  %3 = load ptr, ptr %2, align 8
  %4 = getelementptr inbounds nuw %"class.llvm::DbgRecord", ptr %3, i32 0, i32 1
  %5 = load ptr, ptr %4, align 8
  ret ptr %5
}

; Function Attrs: mustprogress nounwind uwtable
define dso_local void @_ZN4llvm9DbgRecord12insertBeforeEPS0_(ptr noundef nonnull align 8 dereferenceable(33) %0, ptr noundef %1) #0 align 2 {
  %3 = alloca ptr, align 8
  %4 = alloca ptr, align 8
  store ptr %0, ptr %3, align 8
  store ptr %1, ptr %4, align 8
  %5 = load ptr, ptr %3, align 8
  %6 = load ptr, ptr %4, align 8
  %7 = call noundef ptr @_ZN4llvm9DbgRecord9getMarkerEv(ptr noundef nonnull align 8 dereferenceable(33) %6)
  %8 = load ptr, ptr %4, align 8
  call void @_ZN4llvm9DbgMarker15insertDbgRecordEPNS_9DbgRecordES2_(ptr noundef nonnull align 8 dereferenceable(24) %7, ptr noundef %5, ptr noundef %8)
  ret void
}

; Function Attrs: mustprogress nounwind uwtable
define dso_local noundef ptr @_ZN4llvm17DbgVariableRecord16createDVRDeclareEPNS_5ValueEPNS_15DILocalVariableEPNS_12DIExpressionEPKNS_10DILocationE(ptr noundef %0, ptr noundef %1, ptr noundef %2, ptr noundef %3) #0 align 2 {
  %5 = alloca ptr, align 8
  %6 = alloca ptr, align 8
  %7 = alloca ptr, align 8
  %8 = alloca ptr, align 8
  store ptr %0, ptr %5, align 8
  store ptr %1, ptr %6, align 8
  store ptr %2, ptr %7, align 8
  store ptr %3, ptr %8, align 8
  %9 = call noalias noundef nonnull ptr @_Znwm(i64 noundef 96) #12
  %10 = load ptr, ptr %5, align 8
  %11 = call noundef ptr @_ZN4llvm15ValueAsMetadata3getEPNS_5ValueE(ptr noundef %10)
  %12 = load ptr, ptr %6, align 8
  %13 = load ptr, ptr %7, align 8
  %14 = load ptr, ptr %8, align 8
  call void @_ZN4llvm17DbgVariableRecordC1EPNS_8MetadataEPNS_15DILocalVariableEPNS_12DIExpressionEPKNS_10DILocationENS0_12LocationTypeE(ptr noundef nonnull align 8 dereferenceable(96) %9, ptr noundef %11, ptr noundef %12, ptr noundef %13, ptr noundef %14, i8 noundef zeroext 0)
  ret ptr %9
}

; Function Attrs: mustprogress nounwind uwtable
define dso_local noundef ptr @_ZN4llvm17DbgVariableRecord16createDVRDeclareEPNS_5ValueEPNS_15DILocalVariableEPNS_12DIExpressionEPKNS_10DILocationERS0_(ptr noundef %0, ptr noundef %1, ptr noundef %2, ptr noundef %3, ptr noundef nonnull align 8 dereferenceable(96) %4) #0 align 2 {
  %6 = alloca ptr, align 8
  %7 = alloca ptr, align 8
  %8 = alloca ptr, align 8
  %9 = alloca ptr, align 8
  %10 = alloca ptr, align 8
  %11 = alloca ptr, align 8
  store ptr %0, ptr %6, align 8
  store ptr %1, ptr %7, align 8
  store ptr %2, ptr %8, align 8
  store ptr %3, ptr %9, align 8
  store ptr %4, ptr %10, align 8
  %12 = load ptr, ptr %6, align 8
  %13 = load ptr, ptr %7, align 8
  %14 = load ptr, ptr %8, align 8
  %15 = load ptr, ptr %9, align 8
  %16 = call noundef ptr @_ZN4llvm17DbgVariableRecord16createDVRDeclareEPNS_5ValueEPNS_15DILocalVariableEPNS_12DIExpressionEPKNS_10DILocationE(ptr noundef %12, ptr noundef %13, ptr noundef %14, ptr noundef %15)
  store ptr %16, ptr %11, align 8
  %17 = load ptr, ptr %11, align 8
  %18 = load ptr, ptr %10, align 8
  call void @_ZN4llvm9DbgRecord12insertBeforeEPS0_(ptr noundef nonnull align 8 dereferenceable(33) %17, ptr noundef %18)
  %19 = load ptr, ptr %11, align 8
  ret ptr %19
}