; Function Attrs: mustprogress nounwind uwtable
define dso_local noundef nonnull ptr @_ZN4llvm17DbgVariableRecord16createDVRDeclareEPNS_5ValueEPNS_15DILocalVariableEPNS_12DIExpressionEPKNS_10DILocationERS0_(ptr noundef %0, ptr noundef %1, ptr noundef %2, ptr noundef %3, ptr noundef nonnull align 8 dereferenceable(96) %4) local_unnamed_addr #0 align 2 {
  %6 = tail call noalias noundef nonnull dereferenceable(96) ptr @_Znwm(i64 noundef 96) #19
  %7 = tail call noundef ptr @_ZN4llvm15ValueAsMetadata3getEPNS_5ValueE(ptr noundef %0) #17
  tail call void @_ZN4llvm17DbgVariableRecordC1EPNS_8MetadataEPNS_15DILocalVariableEPNS_12DIExpressionEPKNS_10DILocationENS0_12LocationTypeE(ptr noundef nonnull align 8 dereferenceable(96) %6, ptr noundef %7, ptr noundef %1, ptr noundef %2, ptr noundef %3, i8 noundef zeroext 0) #17
  %8 = getelementptr inbounds nuw i8, ptr %4, i64 16
  %9 = load ptr, ptr %8, align 8
  %10 = load ptr, ptr %4, align 8
  %11 = getelementptr inbounds nuw i8, ptr %6, i64 8
  store ptr %4, ptr %11, align 8
  store ptr %10, ptr %6, align 8
  %12 = getelementptr inbounds nuw i8, ptr %10, i64 8
  store ptr %6, ptr %12, align 8
  store ptr %6, ptr %4, align 8
  %13 = getelementptr inbounds nuw i8, ptr %6, i64 16
  store ptr %9, ptr %13, align 8
  ret ptr %6
}